; Function Attrs: mustprogress uwtable
define noundef i32 @_ZNK6casadi4Find4evalEPPKdPPdPxS4_(ptr noundef nonnull readonly align 8 captures(none) dereferenceable(64) %0, ptr noundef readonly captures(none) %1, ptr noundef readonly captures(none) %2, ptr readnone captures(none) %3, ptr readnone captures(none) %4) unnamed_addr #3 align 2 {
  %6 = getelementptr inbounds nuw i8, ptr %0, i64 32
  %7 = getelementptr inbounds nuw i8, ptr %0, i64 40
  %8 = load ptr, ptr %7, align 8, !tbaa !31
  %9 = load ptr, ptr %6, align 8, !tbaa !34
  %.not.i.i.i.not = icmp eq ptr %8, %9
  br i1 %.not.i.i.i.not, label %10, label %_ZNK6casadi6MXNode3depEx.exit

10:                                               ; preds = %5
  tail call void (ptr, ...) @_ZSt24__throw_out_of_range_fmtPKcz(ptr noundef nonnull @.str.27, i64 noundef 0, i64 noundef 0) #22
  unreachable

_ZNK6casadi6MXNode3depEx.exit:                    ; preds = %5
  %11 = load ptr, ptr %1, align 8, !tbaa !35
  %12 = tail call noundef nonnull align 8 dereferenceable(8) ptr @_ZNK6casadi2MX8sparsityEv(ptr noundef nonnull align 8 dereferenceable(8) %9)
  %13 = tail call noundef i64 @_ZNK6casadi8Sparsity3nnzEv(ptr noundef nonnull align 8 dereferenceable(8) %12)
  %14 = icmp sgt i64 %13, 0
  br i1 %14, label %.lr.ph, label %.critedge10

.lr.ph:                                           ; preds = %_ZNK6casadi6MXNode3depEx.exit, %17
  %.017 = phi i64 [ %19, %17 ], [ 0, %_ZNK6casadi6MXNode3depEx.exit ]
  %.0916 = phi ptr [ %18, %17 ], [ %11, %_ZNK6casadi6MXNode3depEx.exit ]
  %15 = load double, ptr %.0916, align 8, !tbaa !37
  %16 = fcmp oeq double %15, 0.000000e+00
  br i1 %16, label %17, label %.critedge

17:                                               ; preds = %.lr.ph
  %18 = getelementptr inbounds nuw i8, ptr %.0916, i64 8
  %19 = add nuw nsw i64 %.017, 1
  %exitcond.not = icmp eq i64 %19, %13
  br i1 %exitcond.not, label %.critedge10, label %.lr.ph, !llvm.loop !39

.critedge:                                        ; preds = %.lr.ph
  %20 = load ptr, ptr %7, align 8, !tbaa !31
  %21 = load ptr, ptr %6, align 8, !tbaa !34
  %.not.i.i.i11.not = icmp eq ptr %20, %21
  br i1 %.not.i.i.i11.not, label %22, label %_ZNK6casadi6MXNode3depEx.exit12

22:                                               ; preds = %.critedge
  tail call void (ptr, ...) @_ZSt24__throw_out_of_range_fmtPKcz(ptr noundef nonnull @.str.27, i64 noundef 0, i64 noundef 0) #22
  unreachable

_ZNK6casadi6MXNode3depEx.exit12:                  ; preds = %.critedge
  %23 = tail call noundef nonnull align 8 dereferenceable(8) ptr @_ZNK6casadi2MX8sparsityEv(ptr noundef nonnull align 8 dereferenceable(8) %21)
  %24 = tail call noundef i64 @_ZNK6casadi8Sparsity3rowEx(ptr noundef nonnull align 8 dereferenceable(8) %23, i64 noundef %.017)
  br label %30

.critedge10:                                      ; preds = %17, %_ZNK6casadi6MXNode3depEx.exit
  %25 = load ptr, ptr %7, align 8, !tbaa !31
  %26 = load ptr, ptr %6, align 8, !tbaa !34
  %.not.i.i.i13.not = icmp eq ptr %25, %26
  br i1 %.not.i.i.i13.not, label %27, label %_ZNK6casadi6MXNode3depEx.exit14

27:                                               ; preds = %.critedge10
  tail call void (ptr, ...) @_ZSt24__throw_out_of_range_fmtPKcz(ptr noundef nonnull @.str.27, i64 noundef 0, i64 noundef 0) #22
  unreachable

_ZNK6casadi6MXNode3depEx.exit14:                  ; preds = %.critedge10
  %28 = tail call noundef nonnull align 8 dereferenceable(8) ptr @_ZNK6casadi2MX8sparsityEv(ptr noundef nonnull align 8 dereferenceable(8) %26)
  %29 = tail call noundef i64 @_ZNK6casadi8Sparsity5size1Ev(ptr noundef nonnull align 8 dereferenceable(8) %28)
  br label %30

30:                                               ; preds = %_ZNK6casadi6MXNode3depEx.exit14, %_ZNK6casadi6MXNode3depEx.exit12
  %.in = phi i64 [ %24, %_ZNK6casadi6MXNode3depEx.exit12 ], [ %29, %_ZNK6casadi6MXNode3depEx.exit14 ]
  %31 = sitofp i64 %.in to double
  %32 = load ptr, ptr %2, align 8, !tbaa !35
  store double %31, ptr %32, align 8, !tbaa !37
  ret i32 0
}